; Function Attrs: nounwind uwtable
define internal void @krb5kdf_free(ptr noundef %0) #0 {
  %.not = icmp eq ptr %0, null
  br i1 %.not, label %13, label %2

2:                                                ; preds = %1
  %3 = load ptr, ptr %0, align 8, !tbaa !3
  %4 = getelementptr inbounds nuw i8, ptr %0, i64 8
  tail call void @ossl_prov_cipher_reset(ptr noundef nonnull %4) #7
  %5 = getelementptr inbounds nuw i8, ptr %0, i64 32
  %6 = load ptr, ptr %5, align 8, !tbaa !13
  %7 = getelementptr inbounds nuw i8, ptr %0, i64 40
  %8 = load i64, ptr %7, align 8, !tbaa !14
  tail call void @CRYPTO_clear_free(ptr noundef %6, i64 noundef %8, ptr noundef nonnull @.str, i32 noundef 89) #7
  %9 = getelementptr inbounds nuw i8, ptr %0, i64 48
  %10 = load ptr, ptr %9, align 8, !tbaa !15
  %11 = getelementptr inbounds nuw i8, ptr %0, i64 56
  %12 = load i64, ptr %11, align 8, !tbaa !16
  tail call void @CRYPTO_clear_free(ptr noundef %10, i64 noundef %12, ptr noundef nonnull @.str, i32 noundef 90) #7
  tail call void @llvm.memset.p0.i64(ptr noundef nonnull align 8 dereferenceable(64) %4, i8 0, i64 56, i1 false)
  store ptr %3, ptr %0, align 8, !tbaa !3
  tail call void @CRYPTO_free(ptr noundef nonnull %0, ptr noundef nonnull @.str, i32 noundef 79) #7
  br label %13

13:                                               ; preds = %2, %1
  ret void
}